target datalayout = "e-m:e-p270:32:32-p271:32:32-p272:64:64-i64:64-i128:128-f80:128-n8:16:32:64-S128"
target triple = "x86_64-unknown-linux-gnu"

%"class.openvdb::v11_0::points::GroupHandle" = type <{ ptr, i8, [7 x i8] }>
%"class.openvdb::v11_0::points::AttributeArray" = type { ptr, i8, %"class.tbb::detail::d1::spin_mutex", i8, i8, %"struct.std::atomic.0", %union.anon }
%"class.tbb::detail::d1::spin_mutex" = type { %"struct.std::atomic" }
%"struct.std::atomic" = type { %"struct.std::__atomic_base" }
%"struct.std::__atomic_base" = type { i8 }
%"struct.std::atomic.0" = type { %"struct.std::__atomic_base.1" }
%"struct.std::__atomic_base.1" = type { i32 }
%union.anon = type { %"class.std::unique_ptr" }
%"class.std::unique_ptr" = type { %"struct.std::__uniq_ptr_data" }
%"struct.std::__uniq_ptr_data" = type { %"class.std::__uniq_ptr_impl" }
%"class.std::__uniq_ptr_impl" = type { %"class.std::tuple" }
%"class.std::tuple" = type { %"struct.std::_Tuple_impl" }
%"struct.std::_Tuple_impl" = type { %"struct.std::_Head_base.3" }
%"struct.std::_Head_base.3" = type { ptr }
%"class.openvdb::v11_0::points::TypedAttributeArray" = type { %"class.openvdb::v11_0::points::AttributeArray", %"class.std::unique_ptr.4", i32, i32 }
%"class.std::unique_ptr.4" = type { %"struct.std::__uniq_ptr_data.5" }
%"struct.std::__uniq_ptr_data.5" = type { %"class.std::__uniq_ptr_impl.6" }
%"class.std::__uniq_ptr_impl.6" = type { %"class.std::tuple.7" }
%"class.std::tuple.7" = type { %"struct.std::_Tuple_impl.8" }
%"struct.std::_Tuple_impl.8" = type { %"struct.std::_Head_base.11" }
%"struct.std::_Head_base.11" = type { ptr }

; Function Attrs: mustprogress nounwind uwtable
define linkonce_odr noundef nonnull align 8 dereferenceable(8) ptr @_ZNSt10_Head_baseILm0EPhLb0EE7_M_headERKS1_(ptr noundef nonnull align 8 dereferenceable(8) %__b) #5 comdat align 2 {
entry:
  %__b.addr = alloca ptr, align 8
  store ptr %__b, ptr %__b.addr, align 8
  %0 = load ptr, ptr %__b.addr, align 8
  %_M_head_impl = getelementptr inbounds %"struct.std::_Head_base.11", ptr %0, i32 0, i32 0
  ret ptr %_M_head_impl
}

; Function Attrs: mustprogress nounwind uwtable
define linkonce_odr noundef nonnull align 8 dereferenceable(8) ptr @_ZNSt11_Tuple_implILm0EJPhSt14default_deleteIA_hEEE7_M_headERKS4_(ptr noundef nonnull align 8 dereferenceable(8) %__t) #5 comdat align 2 {
entry:
  %__t.addr = alloca ptr, align 8
  store ptr %__t, ptr %__t.addr, align 8
  %0 = load ptr, ptr %__t.addr, align 8
  %call = call noundef nonnull align 8 dereferenceable(8) ptr @_ZNSt10_Head_baseILm0EPhLb0EE7_M_headERKS1_(ptr noundef nonnull align 8 dereferenceable(8) %0) #3
  ret ptr %call
}

; Function Attrs: mustprogress nounwind uwtable
define linkonce_odr noundef nonnull align 8 dereferenceable(8) ptr @_ZSt12__get_helperILm0EPhJSt14default_deleteIA_hEEERKT0_RKSt11_Tuple_implIXT_EJS4_DpT1_EE(ptr noundef nonnull align 8 dereferenceable(8) %__t) #5 comdat {
entry:
  %__t.addr = alloca ptr, align 8
  store ptr %__t, ptr %__t.addr, align 8
  %0 = load ptr, ptr %__t.addr, align 8
  %call = call noundef nonnull align 8 dereferenceable(8) ptr @_ZNSt11_Tuple_implILm0EJPhSt14default_deleteIA_hEEE7_M_headERKS4_(ptr noundef nonnull align 8 dereferenceable(8) %0) #3
  ret ptr %call
}

; Function Attrs: mustprogress nounwind uwtable
define linkonce_odr noundef nonnull align 8 dereferenceable(8) ptr @_ZSt3getILm0EJPhSt14default_deleteIA_hEEERKNSt13tuple_elementIXT_ESt5tupleIJDpT0_EEE4typeERKS8_(ptr noundef nonnull align 8 dereferenceable(8) %__t) #5 comdat {
entry:
  %__t.addr = alloca ptr, align 8
  store ptr %__t, ptr %__t.addr, align 8
  %0 = load ptr, ptr %__t.addr, align 8
  %call = call noundef nonnull align 8 dereferenceable(8) ptr @_ZSt12__get_helperILm0EPhJSt14default_deleteIA_hEEERKT0_RKSt11_Tuple_implIXT_EJS4_DpT1_EE(ptr noundef nonnull align 8 dereferenceable(8) %0) #3
  ret ptr %call
}

; Function Attrs: mustprogress nounwind uwtable
define linkonce_odr noundef ptr @_ZNKSt15__uniq_ptr_implIhSt14default_deleteIA_hEE6_M_ptrEv(ptr noundef nonnull align 8 dereferenceable(8) %this) #5 comdat align 2 {
entry:
  %this.addr = alloca ptr, align 8
  store ptr %this, ptr %this.addr, align 8
  %this1 = load ptr, ptr %this.addr, align 8
  %_M_t = getelementptr inbounds %"class.std::__uniq_ptr_impl.6", ptr %this1, i32 0, i32 0
  %call = call noundef nonnull align 8 dereferenceable(8) ptr @_ZSt3getILm0EJPhSt14default_deleteIA_hEEERKNSt13tuple_elementIXT_ESt5tupleIJDpT0_EEE4typeERKS8_(ptr noundef nonnull align 8 dereferenceable(8) %_M_t) #3
  %0 = load ptr, ptr %call, align 8
  ret ptr %0
}

; Function Attrs: mustprogress nounwind uwtable
define linkonce_odr void @_ZN7openvdb5v11_06points10GroupCodec6encodeERKhRh(ptr noundef nonnull align 1 dereferenceable(1) %val, ptr noundef nonnull align 1 dereferenceable(1) %data) #5 comdat align 2 {
entry:
  %val.addr = alloca ptr, align 8
  %data.addr = alloca ptr, align 8
  store ptr %val, ptr %val.addr, align 8
  store ptr %data, ptr %data.addr, align 8
  %0 = load ptr, ptr %val.addr, align 8
  %1 = load i8, ptr %0, align 1
  %2 = load ptr, ptr %data.addr, align 8
  store i8 %1, ptr %2, align 1
  ret void
}

; Function Attrs: mustprogress nounwind uwtable
define linkonce_odr noundef ptr @_ZN7openvdb5v11_06points19TypedAttributeArrayIhNS1_10GroupCodecEE4dataEv(ptr noundef nonnull align 8 dereferenceable(40) %this) #5 comdat align 2 {
entry:
  %this.addr = alloca ptr, align 8
  store ptr %this, ptr %this.addr, align 8
  %this1 = load ptr, ptr %this.addr, align 8
  %mData = getelementptr inbounds %"class.openvdb::v11_0::points::TypedAttributeArray", ptr %this1, i32 0, i32 1
  %call = call noundef ptr @_ZNKSt10unique_ptrIA_hSt14default_deleteIS0_EE3getEv(ptr noundef nonnull align 8 dereferenceable(8) %mData) #3
  ret ptr %call
}

; Function Attrs: mustprogress nounwind uwtable
define linkonce_odr noundef ptr @_ZNKSt10unique_ptrIA_hSt14default_deleteIS0_EE3getEv(ptr noundef nonnull align 8 dereferenceable(8) %this) #5 comdat align 2 {
entry:
  %this.addr = alloca ptr, align 8
  store ptr %this, ptr %this.addr, align 8
  %this1 = load ptr, ptr %this.addr, align 8
  %_M_t = getelementptr inbounds %"class.std::unique_ptr.4", ptr %this1, i32 0, i32 0
  %call = call noundef ptr @_ZNKSt15__uniq_ptr_implIhSt14default_deleteIA_hEE6_M_ptrEv(ptr noundef nonnull align 8 dereferenceable(8) %_M_t) #3
  ret ptr %call
}

; Function Attrs: mustprogress uwtable
define linkonce_odr void @_ZN7openvdb5v11_06points19TypedAttributeArrayIhNS1_10GroupCodecEE9setUnsafeEjRKh(ptr noundef nonnull align 8 dereferenceable(40) %this, i32 noundef %n, ptr noundef nonnull align 1 dereferenceable(1) %val) #4 comdat align 2 {
entry:
  %this.addr = alloca ptr, align 8
  %n.addr = alloca i32, align 4
  %val.addr = alloca ptr, align 8
  store ptr %this, ptr %this.addr, align 8
  store i32 %n, ptr %n.addr, align 4
  store ptr %val, ptr %val.addr, align 8
  %this1 = load ptr, ptr %this.addr, align 8
  %0 = load ptr, ptr %val.addr, align 8
  %call = call noundef ptr @_ZN7openvdb5v11_06points19TypedAttributeArrayIhNS1_10GroupCodecEE4dataEv(ptr noundef nonnull align 8 dereferenceable(40) %this1)
  %mIsUniform = getelementptr inbounds %"class.openvdb::v11_0::points::AttributeArray", ptr %this1, i32 0, i32 1
  %1 = load i8, ptr %mIsUniform, align 8
  %tobool = trunc i8 %1 to i1
  br i1 %tobool, label %cond.true, label %cond.false

cond.true:                                        ; preds = %entry
  br label %cond.end

cond.false:                                       ; preds = %entry
  %2 = load i32, ptr %n.addr, align 4
  br label %cond.end

cond.end:                                         ; preds = %cond.false, %cond.true
  %cond = phi i32 [ 0, %cond.true ], [ %2, %cond.false ]
  %idxprom = zext i32 %cond to i64
  %arrayidx = getelementptr inbounds i8, ptr %call, i64 %idxprom
  call void @_ZN7openvdb5v11_06points10GroupCodec6encodeERKhRh(ptr noundef nonnull align 1 dereferenceable(1) %0, ptr noundef nonnull align 1 dereferenceable(1) %arrayidx)
  ret void
}

; Function Attrs: mustprogress nounwind uwtable
define linkonce_odr void @_ZN7openvdb5v11_06points10GroupCodec6decodeERKhRh(ptr noundef nonnull align 1 dereferenceable(1) %data, ptr noundef nonnull align 1 dereferenceable(1) %val) #5 comdat align 2 {
entry:
  %data.addr = alloca ptr, align 8
  %val.addr = alloca ptr, align 8
  store ptr %data, ptr %data.addr, align 8
  store ptr %val, ptr %val.addr, align 8
  %0 = load ptr, ptr %data.addr, align 8
  %1 = load i8, ptr %0, align 1
  %2 = load ptr, ptr %val.addr, align 8
  store i8 %1, ptr %2, align 1
  ret void
}

; Function Attrs: mustprogress nounwind uwtable
define linkonce_odr noundef ptr @_ZNK7openvdb5v11_06points19TypedAttributeArrayIhNS1_10GroupCodecEE4dataEv(ptr noundef nonnull align 8 dereferenceable(40) %this) #5 comdat align 2 {
entry:
  %this.addr = alloca ptr, align 8
  store ptr %this, ptr %this.addr, align 8
  %this1 = load ptr, ptr %this.addr, align 8
  %mData = getelementptr inbounds %"class.openvdb::v11_0::points::TypedAttributeArray", ptr %this1, i32 0, i32 1
  %call = call noundef ptr @_ZNKSt10unique_ptrIA_hSt14default_deleteIS0_EE3getEv(ptr noundef nonnull align 8 dereferenceable(8) %mData) #3
  ret ptr %call
}

; Function Attrs: mustprogress uwtable
define linkonce_odr void @_ZN7openvdb5v11_06points19TypedAttributeArrayIhNS1_10GroupCodecEE9setUnsafeIiEEvjRKT_(ptr noundef nonnull align 8 dereferenceable(40) %this, i32 noundef %n, ptr noundef nonnull align 4 dereferenceable(4) %val) #4 comdat align 2 {
entry:
  %this.addr = alloca ptr, align 8
  %n.addr = alloca i32, align 4
  %val.addr = alloca ptr, align 8
  %ref.tmp = alloca i8, align 1
  store ptr %this, ptr %this.addr, align 8
  store i32 %n, ptr %n.addr, align 4
  store ptr %val, ptr %val.addr, align 8
  %this1 = load ptr, ptr %this.addr, align 8
  %0 = load i32, ptr %n.addr, align 4
  %1 = load ptr, ptr %val.addr, align 8
  %2 = load i32, ptr %1, align 4
  %conv = trunc i32 %2 to i8
  store i8 %conv, ptr %ref.tmp, align 1
  call void @_ZN7openvdb5v11_06points19TypedAttributeArrayIhNS1_10GroupCodecEE9setUnsafeEjRKh(ptr noundef nonnull align 8 dereferenceable(40) %this1, i32 noundef %0, ptr noundef nonnull align 1 dereferenceable(1) %ref.tmp)
  ret void
}

; Function Attrs: mustprogress uwtable
define linkonce_odr noundef zeroext i8 @_ZNK7openvdb5v11_06points19TypedAttributeArrayIhNS1_10GroupCodecEE9getUnsafeEj(ptr noundef nonnull align 8 dereferenceable(40) %this, i32 noundef %n) #4 comdat align 2 {
entry:
  %this.addr = alloca ptr, align 8
  %n.addr = alloca i32, align 4
  %val = alloca i8, align 1
  store ptr %this, ptr %this.addr, align 8
  store i32 %n, ptr %n.addr, align 4
  %this1 = load ptr, ptr %this.addr, align 8
  %call = call noundef ptr @_ZNK7openvdb5v11_06points19TypedAttributeArrayIhNS1_10GroupCodecEE4dataEv(ptr noundef nonnull align 8 dereferenceable(40) %this1)
  %mIsUniform = getelementptr inbounds %"class.openvdb::v11_0::points::AttributeArray", ptr %this1, i32 0, i32 1
  %0 = load i8, ptr %mIsUniform, align 8
  %tobool = trunc i8 %0 to i1
  br i1 %tobool, label %cond.true, label %cond.false

cond.true:                                        ; preds = %entry
  br label %cond.end

cond.false:                                       ; preds = %entry
  %1 = load i32, ptr %n.addr, align 4
  br label %cond.end

cond.end:                                         ; preds = %cond.false, %cond.true
  %cond = phi i32 [ 0, %cond.true ], [ %1, %cond.false ]
  %idxprom = zext i32 %cond to i64
  %arrayidx = getelementptr inbounds i8, ptr %call, i64 %idxprom
  call void @_ZN7openvdb5v11_06points10GroupCodec6decodeERKhRh(ptr noundef nonnull align 1 dereferenceable(1) %arrayidx, ptr noundef nonnull align 1 dereferenceable(1) %val)
  %2 = load i8, ptr %val, align 1
  ret i8 %2
}

; Function Attrs: mustprogress uwtable
define void @_ZN7openvdb5v11_06points16GroupWriteHandle9setUnsafeEjb(ptr noundef nonnull align 8 dereferenceable(9) %this, i32 noundef %n, i1 noundef zeroext %on) #4 align 2 {
entry:
  %this.addr = alloca ptr, align 8
  %n.addr = alloca i32, align 4
  %on.addr = alloca i8, align 1
  %value = alloca ptr, align 8
  %ref.tmp = alloca i8, align 1
  %array = alloca ptr, align 8
  %ref.tmp3 = alloca i32, align 4
  %ref.tmp5 = alloca i32, align 4
  store ptr %this, ptr %this.addr, align 8
  store i32 %n, ptr %n.addr, align 4
  %frombool = zext i1 %on to i8
  store i8 %frombool, ptr %on.addr, align 1
  %this1 = load ptr, ptr %this.addr, align 8
  %mArray = getelementptr inbounds %"class.openvdb::v11_0::points::GroupHandle", ptr %this1, i32 0, i32 0
  %0 = load ptr, ptr %mArray, align 8
  %1 = load i32, ptr %n.addr, align 4
  %call = call noundef zeroext i8 @_ZNK7openvdb5v11_06points19TypedAttributeArrayIhNS1_10GroupCodecEE9getUnsafeEj(ptr noundef nonnull align 8 dereferenceable(40) %0, i32 noundef %1)
  store i8 %call, ptr %ref.tmp, align 1
  store ptr %ref.tmp, ptr %value, align 8
  %mArray2 = getelementptr inbounds %"class.openvdb::v11_0::points::GroupHandle", ptr %this1, i32 0, i32 0
  %2 = load ptr, ptr %mArray2, align 8
  store ptr %2, ptr %array, align 8
  %3 = load i8, ptr %on.addr, align 1
  %tobool = trunc i8 %3 to i1
  br i1 %tobool, label %if.then, label %if.else

if.then:                                          ; preds = %entry
  %4 = load ptr, ptr %array, align 8
  %5 = load i32, ptr %n.addr, align 4
  %6 = load ptr, ptr %value, align 8
  %7 = load i8, ptr %6, align 1
  %conv = zext i8 %7 to i32
  %mBitMask = getelementptr inbounds %"class.openvdb::v11_0::points::GroupHandle", ptr %this1, i32 0, i32 1
  %8 = load i8, ptr %mBitMask, align 8
  %conv4 = zext i8 %8 to i32
  %or = or i32 %conv, %conv4
  store i32 %or, ptr %ref.tmp3, align 4
  call void @_ZN7openvdb5v11_06points19TypedAttributeArrayIhNS1_10GroupCodecEE9setUnsafeIiEEvjRKT_(ptr noundef nonnull align 8 dereferenceable(40) %4, i32 noundef %5, ptr noundef nonnull align 4 dereferenceable(4) %ref.tmp3)
  br label %if.end

if.else:                                          ; preds = %entry
  %9 = load ptr, ptr %array, align 8
  %10 = load i32, ptr %n.addr, align 4
  %11 = load ptr, ptr %value, align 8
  %12 = load i8, ptr %11, align 1
  %conv6 = zext i8 %12 to i32
  %mBitMask7 = getelementptr inbounds %"class.openvdb::v11_0::points::GroupHandle", ptr %this1, i32 0, i32 1
  %13 = load i8, ptr %mBitMask7, align 8
  %conv8 = zext i8 %13 to i32
  %not = xor i32 %conv8, -1
  %and = and i32 %conv6, %not
  store i32 %and, ptr %ref.tmp5, align 4
  call void @_ZN7openvdb5v11_06points19TypedAttributeArrayIhNS1_10GroupCodecEE9setUnsafeIiEEvjRKT_(ptr noundef nonnull align 8 dereferenceable(40) %9, i32 noundef %10, ptr noundef nonnull align 4 dereferenceable(4) %ref.tmp5)
  br label %if.end

if.end:                                           ; preds = %if.else, %if.then
  ret void
}