; Function Attrs: mustprogress nofree norecurse nosync nounwind willreturn memory(readwrite, inaccessiblemem: none) uwtable
define void @_ZN7openvdb5v11_06points16GroupWriteHandle9setUnsafeEjb(ptr nocapture noundef nonnull readonly align 8 dereferenceable(9) %this, i32 noundef %n, i1 noundef zeroext %on) local_unnamed_addr #5 align 2 {
entry:
  %0 = load ptr, ptr %this, align 8
  %mData.i.i = getelementptr inbounds i8, ptr %0, i64 24
  %1 = load ptr, ptr %mData.i.i, align 8
  %mIsUniform.i = getelementptr inbounds i8, ptr %0, i64 8
  %2 = load i8, ptr %mIsUniform.i, align 8
  %3 = and i8 %2, 1
  %tobool.not.i = icmp eq i8 %3, 0
  %4 = zext i32 %n to i64
  %idxprom.i = select i1 %tobool.not.i, i64 %4, i64 0
  %arrayidx.i = getelementptr inbounds i8, ptr %1, i64 %idxprom.i
  %5 = load i8, ptr %arrayidx.i, align 1
  %mBitMask = getelementptr inbounds i8, ptr %this, i64 8
  %6 = load i8, ptr %mBitMask, align 8
  %not = xor i8 %6, -1
  %and = and i8 %5, %not
  %or6 = or i8 %6, %5
  %storemerge = select i1 %on, i8 %or6, i8 %and
  store i8 %storemerge, ptr %arrayidx.i, align 1
  ret void
}